target datalayout = "e-m:e-p270:32:32-p271:32:32-p272:64:64-i64:64-i128:128-f80:128-n8:16:32:64-S128"
target triple = "x86_64-pc-linux-gnu"

; Function Attrs: inlinehint nounwind uwtable
define internal void @lv_memzero(ptr noundef %0, i64 noundef %1) #4 {
  %3 = alloca ptr, align 8
  %4 = alloca i64, align 8
  store ptr %0, ptr %3, align 8, !tbaa !3
  store i64 %1, ptr %4, align 8, !tbaa !26
  %5 = load ptr, ptr %3, align 8, !tbaa !3
  %6 = load i64, ptr %4, align 8, !tbaa !26
  call void @lv_memset(ptr noundef %5, i8 noundef zeroext 0, i64 noundef %6)
  ret void
}

; Function Attrs: nounwind uwtable
define void @lv_color16_premultiply(ptr noundef %0, i8 noundef zeroext %1) #0 {
  %3 = alloca ptr, align 8
  %4 = alloca i8, align 1
  store ptr %0, ptr %3, align 8, !tbaa !3
  store i8 %1, ptr %4, align 1, !tbaa !7
  %5 = load i8, ptr %4, align 1, !tbaa !7
  %6 = zext i8 %5 to i32
  %7 = icmp eq i32 %6, 255
  br i1 %7, label %8, label %9

8:                                                ; preds = %2
  br label %61

9:                                                ; preds = %2
  %10 = load i8, ptr %4, align 1, !tbaa !7
  %11 = zext i8 %10 to i32
  %12 = icmp eq i32 %11, 0
  br i1 %12, label %13, label %15

13:                                               ; preds = %9
  %14 = load ptr, ptr %3, align 8, !tbaa !3
  call void @lv_memzero(ptr noundef %14, i64 noundef 2)
  br label %61

15:                                               ; preds = %9
  %16 = load ptr, ptr %3, align 8, !tbaa !3
  %17 = load i16, ptr %16, align 2
  %18 = lshr i16 %17, 11
  %19 = zext i16 %18 to i32
  %20 = load i8, ptr %4, align 1, !tbaa !7
  %21 = zext i8 %20 to i32
  %22 = mul nsw i32 %19, %21
  %23 = ashr i32 %22, 8
  %24 = trunc i32 %23 to i16
  %25 = load ptr, ptr %3, align 8, !tbaa !3
  %26 = load i16, ptr %25, align 2
  %27 = and i16 %24, 31
  %28 = shl i16 %27, 11
  %29 = and i16 %26, 2047
  %30 = or i16 %29, %28
  store i16 %30, ptr %25, align 2
  %31 = load ptr, ptr %3, align 8, !tbaa !3
  %32 = load i16, ptr %31, align 2
  %33 = lshr i16 %32, 5
  %34 = and i16 %33, 63
  %35 = zext i16 %34 to i32
  %36 = load i8, ptr %4, align 1, !tbaa !7
  %37 = zext i8 %36 to i32
  %38 = mul nsw i32 %35, %37
  %39 = ashr i32 %38, 8
  %40 = trunc i32 %39 to i16
  %41 = load ptr, ptr %3, align 8, !tbaa !3
  %42 = load i16, ptr %41, align 2
  %43 = and i16 %40, 63
  %44 = shl i16 %43, 5
  %45 = and i16 %42, -2017
  %46 = or i16 %45, %44
  store i16 %46, ptr %41, align 2
  %47 = load ptr, ptr %3, align 8, !tbaa !3
  %48 = load i16, ptr %47, align 2
  %49 = and i16 %48, 31
  %50 = zext i16 %49 to i32
  %51 = load i8, ptr %4, align 1, !tbaa !7
  %52 = zext i8 %51 to i32
  %53 = mul nsw i32 %50, %52
  %54 = ashr i32 %53, 8
  %55 = trunc i32 %54 to i16
  %56 = load ptr, ptr %3, align 8, !tbaa !3
  %57 = load i16, ptr %56, align 2
  %58 = and i16 %55, 31
  %59 = and i16 %57, -32
  %60 = or i16 %59, %58
  store i16 %60, ptr %56, align 2
  br label %61

61:                                               ; preds = %15, %13, %8
  ret void
}