; Function Attrs: nounwind uwtable
define void @lv_color16_premultiply(ptr noundef %0, i8 noundef zeroext %1) local_unnamed_addr #0 {
  switch i8 %1, label %4 [
    i8 -1, label %21
    i8 0, label %3
  ]

3:                                                ; preds = %2
  tail call void @lv_memset(ptr noundef %0, i8 noundef zeroext 0, i64 noundef 2) #5
  br label %21

4:                                                ; preds = %2
  %5 = zext i8 %1 to i16
  %6 = load i16, ptr %0, align 2
  %7 = lshr i16 %6, 11
  %8 = shl nuw nsw i16 %5, 3
  %9 = mul nuw i16 %8, %7
  %10 = and i16 %9, -2048
  %11 = and i16 %6, 31
  %12 = lshr i16 %6, 5
  %13 = and i16 %12, 63
  %14 = mul nuw nsw i16 %13, %5
  %15 = lshr i16 %14, 3
  %16 = and i16 %15, 2016
  %17 = mul nuw nsw i16 %11, %5
  %18 = lshr i16 %17, 8
  %19 = or disjoint i16 %18, %10
  %20 = or disjoint i16 %19, %16
  store i16 %20, ptr %0, align 2
  br label %21

21:                                               ; preds = %2, %4, %3
  ret void
}